; Function Attrs: mustprogress nounwind uwtable
define hidden void @_ZN7JfrBlobD2Ev(ptr nocapture noundef nonnull align 8 dereferenceable(25) %0) unnamed_addr #0 align 2 {
  %2 = load ptr, ptr %0, align 8
  %3 = getelementptr inbounds i8, ptr %0, i64 16
  %4 = load i64, ptr %3, align 8
  tail call void @_ZN11JfrCHeapObj4freeEPvm(ptr noundef %2, i64 noundef %4) #6
  %5 = getelementptr inbounds i8, ptr %0, i64 8
  %6 = load ptr, ptr %5, align 8
  %.not.i = icmp eq ptr %6, null
  br i1 %.not.i, label %_ZN14RefCountHandleI15RefCountPointerI7JfrBlob23MultiThreadedRefCounterEED2Ev.exit, label %7

7:                                                ; preds = %1
  %8 = getelementptr inbounds i8, ptr %6, i64 8
  %9 = tail call noundef i64 asm sideeffect "lock xaddq $0,($2)", "=r,0,r,~{cc},~{memory},~{dirflag},~{fpsr},~{flags}"(i64 -1, ptr nonnull %8) #6, !srcloc !6
  %10 = icmp eq i64 %9, 1
  br i1 %10, label %11, label %_ZNK15RefCountPointerI7JfrBlob23MultiThreadedRefCounterE10remove_refEv.exit

11:                                               ; preds = %7
  tail call void asm sideeffect "", "~{memory},~{dirflag},~{fpsr},~{flags}"() #6, !srcloc !7
  %12 = load ptr, ptr %6, align 8
  %13 = icmp eq ptr %12, null
  br i1 %13, label %_ZN15RefCountPointerI7JfrBlob23MultiThreadedRefCounterED2Ev.exit.i, label %14

14:                                               ; preds = %11
  tail call void @_ZN7JfrBlobD2Ev(ptr noundef nonnull align 8 dereferenceable(25) %12) #6
  tail call void @_ZN11JfrCHeapObjdlEPvm(ptr noundef nonnull %12, i64 noundef 32) #6
  br label %_ZN15RefCountPointerI7JfrBlob23MultiThreadedRefCounterED2Ev.exit.i

_ZN15RefCountPointerI7JfrBlob23MultiThreadedRefCounterED2Ev.exit.i: ; preds = %14, %11
  tail call void @_ZN11JfrCHeapObjdlEPvm(ptr noundef nonnull %6, i64 noundef 16) #6
  br label %_ZNK15RefCountPointerI7JfrBlob23MultiThreadedRefCounterE10remove_refEv.exit

_ZNK15RefCountPointerI7JfrBlob23MultiThreadedRefCounterE10remove_refEv.exit: ; preds = %7, %_ZN15RefCountPointerI7JfrBlob23MultiThreadedRefCounterED2Ev.exit.i
  store ptr null, ptr %5, align 8
  br label %_ZN14RefCountHandleI15RefCountPointerI7JfrBlob23MultiThreadedRefCounterEED2Ev.exit

_ZN14RefCountHandleI15RefCountPointerI7JfrBlob23MultiThreadedRefCounterEED2Ev.exit: ; preds = %1, %_ZNK15RefCountPointerI7JfrBlob23MultiThreadedRefCounterE10remove_refEv.exit
  ret void
}